target datalayout = "e-m:e-p270:32:32-p271:32:32-p272:64:64-i64:64-i128:128-f80:128-n8:16:32:64-S128"
target triple = "x86_64-pc-linux-gnu"

%struct._object = type { %union.anon, ptr }
%union.anon = type { i64 }

@.str.6 = private unnamed_addr constant [3 x i8] c"ok\00", align 1
@.str.7 = private unnamed_addr constant [10 x i8] c"Enable(1)\00", align 1
@.str.8 = private unnamed_addr constant [13 x i8] c"IsEnabled(1)\00", align 1
@.str.9 = private unnamed_addr constant [11 x i8] c"disable(2)\00", align 1
@.str.10 = private unnamed_addr constant [13 x i8] c"IsEnabled(2)\00", align 1
@.str.11 = private unnamed_addr constant [10 x i8] c"enable(3)\00", align 1
@.str.12 = private unnamed_addr constant [13 x i8] c"IsEnabled(3)\00", align 1
@.str.13 = private unnamed_addr constant [11 x i8] c"disable(4)\00", align 1
@.str.14 = private unnamed_addr constant [13 x i8] c"IsEnabled(4)\00", align 1
@_Py_NoneStruct = external global %struct._object, align 8
@PyExc_ValueError = external global ptr, align 8
@.str.15 = private unnamed_addr constant [24 x i8] c"GC control failed in %s\00", align 1

; Function Attrs: nounwind uwtable
define internal ptr @test_gc_control(ptr noundef %0, ptr noundef %1) #0 {
  %3 = alloca ptr, align 8
  %4 = alloca ptr, align 8
  %5 = alloca ptr, align 8
  %6 = alloca i32, align 4
  %7 = alloca ptr, align 8
  %8 = alloca i32, align 4
  %9 = alloca i32, align 4
  store ptr %0, ptr %4, align 8, !tbaa !3
  store ptr %1, ptr %5, align 8, !tbaa !3
  call void @llvm.lifetime.start.p0(i64 4, ptr %6) #6
  %10 = call i32 @PyGC_IsEnabled()
  store i32 %10, ptr %6, align 4, !tbaa !8
  call void @llvm.lifetime.start.p0(i64 8, ptr %7) #6
  store ptr @.str.6, ptr %7, align 8, !tbaa !11
  call void @llvm.lifetime.start.p0(i64 4, ptr %8) #6
  %11 = call i32 @PyGC_Enable()
  store i32 %11, ptr %8, align 4, !tbaa !8
  store ptr @.str.7, ptr %7, align 8, !tbaa !11
  %12 = load i32, ptr %8, align 4, !tbaa !8
  %13 = load i32, ptr %6, align 4, !tbaa !8
  %14 = icmp ne i32 %12, %13
  br i1 %14, label %15, label %16

15:                                               ; preds = %2
  br label %52

16:                                               ; preds = %2
  store ptr @.str.8, ptr %7, align 8, !tbaa !11
  %17 = call i32 @PyGC_IsEnabled()
  %18 = icmp ne i32 %17, 0
  br i1 %18, label %20, label %19

19:                                               ; preds = %16
  br label %52

20:                                               ; preds = %16
  %21 = call i32 @PyGC_Disable()
  store i32 %21, ptr %8, align 4, !tbaa !8
  store ptr @.str.9, ptr %7, align 8, !tbaa !11
  %22 = load i32, ptr %8, align 4, !tbaa !8
  %23 = icmp ne i32 %22, 0
  br i1 %23, label %25, label %24

24:                                               ; preds = %20
  br label %52

25:                                               ; preds = %20
  store ptr @.str.10, ptr %7, align 8, !tbaa !11
  %26 = call i32 @PyGC_IsEnabled()
  %27 = icmp ne i32 %26, 0
  br i1 %27, label %28, label %29

28:                                               ; preds = %25
  br label %52

29:                                               ; preds = %25
  %30 = call i32 @PyGC_Enable()
  store i32 %30, ptr %8, align 4, !tbaa !8
  store ptr @.str.11, ptr %7, align 8, !tbaa !11
  %31 = load i32, ptr %8, align 4, !tbaa !8
  %32 = icmp ne i32 %31, 0
  br i1 %32, label %33, label %34

33:                                               ; preds = %29
  br label %52

34:                                               ; preds = %29
  store ptr @.str.12, ptr %7, align 8, !tbaa !11
  %35 = call i32 @PyGC_IsEnabled()
  %36 = icmp ne i32 %35, 0
  br i1 %36, label %38, label %37

37:                                               ; preds = %34
  br label %52

38:                                               ; preds = %34
  %39 = load i32, ptr %6, align 4, !tbaa !8
  %40 = icmp ne i32 %39, 0
  br i1 %40, label %51, label %41

41:                                               ; preds = %38
  %42 = call i32 @PyGC_Disable()
  store i32 %42, ptr %8, align 4, !tbaa !8
  store ptr @.str.13, ptr %7, align 8, !tbaa !11
  %43 = load i32, ptr %8, align 4, !tbaa !8
  %44 = icmp ne i32 %43, 0
  br i1 %44, label %45, label %46

45:                                               ; preds = %41
  br label %52

46:                                               ; preds = %41
  store ptr @.str.14, ptr %7, align 8, !tbaa !11
  %47 = call i32 @PyGC_IsEnabled()
  %48 = icmp ne i32 %47, 0
  br i1 %48, label %49, label %50

49:                                               ; preds = %46
  br label %52

50:                                               ; preds = %46
  br label %51

51:                                               ; preds = %50, %38
  store ptr @_Py_NoneStruct, ptr %3, align 8
  store i32 1, ptr %9, align 4
  br label %63

52:                                               ; preds = %49, %45, %37, %33, %28, %24, %19, %15
  %53 = load i32, ptr %6, align 4, !tbaa !8
  %54 = icmp ne i32 %53, 0
  br i1 %54, label %55, label %57

55:                                               ; preds = %52
  %56 = call i32 @PyGC_Enable()
  br label %59

57:                                               ; preds = %52
  %58 = call i32 @PyGC_Disable()
  br label %59

59:                                               ; preds = %57, %55
  %60 = load ptr, ptr @PyExc_ValueError, align 8, !tbaa !3
  %61 = load ptr, ptr %7, align 8, !tbaa !11
  %62 = call ptr (ptr, ptr, ...) @PyErr_Format(ptr noundef %60, ptr noundef @.str.15, ptr noundef %61)
  store ptr null, ptr %3, align 8
  store i32 1, ptr %9, align 4
  br label %63

63:                                               ; preds = %59, %51
  call void @llvm.lifetime.end.p0(i64 4, ptr %8) #6
  call void @llvm.lifetime.end.p0(i64 8, ptr %7) #6
  call void @llvm.lifetime.end.p0(i64 4, ptr %6) #6
  %64 = load ptr, ptr %3, align 8
  ret ptr %64
}