; Function Attrs: nounwind uwtable
define internal noundef ptr @test_gc_control(ptr readnone captures(none) %0, ptr readnone captures(none) %1) #0 {
  %3 = tail call i32 @PyGC_IsEnabled() #8
  %4 = tail call i32 @PyGC_Enable() #8
  %.not = icmp eq i32 %4, %3
  br i1 %.not, label %5, label %20

5:                                                ; preds = %2
  %6 = tail call i32 @PyGC_IsEnabled() #8
  %.not10 = icmp eq i32 %6, 0
  br i1 %.not10, label %20, label %7

7:                                                ; preds = %5
  %8 = tail call i32 @PyGC_Disable() #8
  %.not11 = icmp eq i32 %8, 0
  br i1 %.not11, label %20, label %9

9:                                                ; preds = %7
  %10 = tail call i32 @PyGC_IsEnabled() #8
  %.not12 = icmp eq i32 %10, 0
  br i1 %.not12, label %11, label %20

11:                                               ; preds = %9
  %12 = tail call i32 @PyGC_Enable() #8
  %.not13 = icmp eq i32 %12, 0
  br i1 %.not13, label %13, label %20

13:                                               ; preds = %11
  %14 = tail call i32 @PyGC_IsEnabled() #8
  %.not14 = icmp eq i32 %14, 0
  br i1 %.not14, label %20, label %15

15:                                               ; preds = %13
  %.not15 = icmp eq i32 %3, 0
  br i1 %.not15, label %16, label %27

16:                                               ; preds = %15
  %17 = tail call i32 @PyGC_Disable() #8
  %.not16 = icmp eq i32 %17, 0
  br i1 %.not16, label %18, label %.thread

18:                                               ; preds = %16
  %19 = tail call i32 @PyGC_IsEnabled() #8
  %.not17 = icmp eq i32 %19, 0
  br i1 %.not17, label %27, label %.thread

20:                                               ; preds = %13, %11, %9, %7, %5, %2
  %.0 = phi ptr [ @.str.7, %2 ], [ @.str.10, %9 ], [ @.str.11, %11 ], [ @.str.12, %13 ], [ @.str.9, %7 ], [ @.str.8, %5 ]
  %.not18 = icmp eq i32 %3, 0
  br i1 %.not18, label %.thread, label %21

21:                                               ; preds = %20
  %22 = tail call i32 @PyGC_Enable() #8
  br label %24

.thread:                                          ; preds = %16, %18, %20
  %.022 = phi ptr [ %.0, %20 ], [ @.str.14, %18 ], [ @.str.13, %16 ]
  %23 = tail call i32 @PyGC_Disable() #8
  br label %24

24:                                               ; preds = %.thread, %21
  %.021 = phi ptr [ %.022, %.thread ], [ %.0, %21 ]
  %25 = load ptr, ptr @PyExc_ValueError, align 8, !tbaa !6
  %26 = tail call ptr (ptr, ptr, ...) @PyErr_Format(ptr noundef %25, ptr noundef nonnull @.str.15, ptr noundef nonnull %.021) #8
  br label %27

27:                                               ; preds = %15, %18, %24
  %.08 = phi ptr [ null, %24 ], [ @_Py_NoneStruct, %18 ], [ @_Py_NoneStruct, %15 ]
  ret ptr %.08
}